target datalayout = "e-m:e-p270:32:32-p271:32:32-p272:64:64-i64:64-i128:128-f80:128-n8:16:32:64-S128"
target triple = "x86_64-pc-linux-gnu"

; Function Attrs: nounwind uwtable
define i32 @h5tools_detect_vlen_str(i64 noundef %0) #0 {
  %2 = alloca i32, align 4
  %3 = alloca i64, align 8
  %4 = alloca i32, align 4
  %5 = alloca i32, align 4
  %6 = alloca i64, align 8
  %7 = alloca i32, align 4
  %8 = alloca i32, align 4
  %9 = alloca i32, align 4
  %10 = alloca i32, align 4
  %11 = alloca i64, align 8
  store i64 %0, ptr %3, align 8, !tbaa !7
  call void @llvm.lifetime.start.p0(i64 4, ptr %4) #10
  store i32 -1, ptr %4, align 4, !tbaa !3
  call void @llvm.lifetime.start.p0(i64 4, ptr %5) #10
  store i32 0, ptr %5, align 4, !tbaa !3
  %12 = load i64, ptr %3, align 8, !tbaa !7
  %13 = call i32 @H5Tis_variable_str(i64 noundef %12)
  store i32 %13, ptr %5, align 4, !tbaa !3
  %14 = load i32, ptr %5, align 4, !tbaa !3
  %15 = icmp eq i32 %14, 1
  br i1 %15, label %19, label %16

16:                                               ; preds = %1
  %17 = load i32, ptr %5, align 4, !tbaa !3
  %18 = icmp slt i32 %17, 0
  br i1 %18, label %19, label %20

19:                                               ; preds = %16, %1
  br label %95

20:                                               ; preds = %16
  %21 = load i64, ptr %3, align 8, !tbaa !7
  %22 = call i32 @H5Tget_class(i64 noundef %21)
  store i32 %22, ptr %4, align 4, !tbaa !3
  %23 = load i32, ptr %4, align 4, !tbaa !3
  %24 = icmp eq i32 %23, 10
  br i1 %24, label %28, label %25

25:                                               ; preds = %20
  %26 = load i32, ptr %4, align 4, !tbaa !3
  %27 = icmp eq i32 %26, 9
  br i1 %27, label %28, label %51

28:                                               ; preds = %25, %20
  call void @llvm.lifetime.start.p0(i64 8, ptr %6) #10
  %29 = load i64, ptr %3, align 8, !tbaa !7
  %30 = call i64 @H5Tget_super(i64 noundef %29)
  store i64 %30, ptr %6, align 8, !tbaa !7
  %31 = load i64, ptr %6, align 8, !tbaa !7
  %32 = icmp slt i64 %31, 0
  br i1 %32, label %33, label %36

33:                                               ; preds = %28
  %34 = load i64, ptr %6, align 8, !tbaa !7
  %35 = trunc i64 %34 to i32
  store i32 %35, ptr %5, align 4, !tbaa !3
  store i32 2, ptr %7, align 4
  br label %48

36:                                               ; preds = %28
  %37 = load i64, ptr %6, align 8, !tbaa !7
  %38 = call i32 @h5tools_detect_vlen_str(i64 noundef %37)
  store i32 %38, ptr %5, align 4, !tbaa !3
  %39 = load i32, ptr %5, align 4, !tbaa !3
  %40 = icmp eq i32 %39, 1
  br i1 %40, label %44, label %41

41:                                               ; preds = %36
  %42 = load i32, ptr %5, align 4, !tbaa !3
  %43 = icmp slt i32 %42, 0
  br i1 %43, label %44, label %47

44:                                               ; preds = %41, %36
  %45 = load i64, ptr %6, align 8, !tbaa !7
  %46 = call i32 @H5Tclose(i64 noundef %45)
  store i32 2, ptr %7, align 4
  br label %48

47:                                               ; preds = %41
  store i32 0, ptr %7, align 4
  br label %48

48:                                               ; preds = %44, %33, %47
  call void @llvm.lifetime.end.p0(i64 8, ptr %6) #10
  %49 = load i32, ptr %7, align 4
  switch i32 %49, label %97 [
    i32 0, label %50
    i32 2, label %95
  ]

50:                                               ; preds = %48
  br label %94

51:                                               ; preds = %25
  %52 = load i32, ptr %4, align 4, !tbaa !3
  %53 = icmp eq i32 %52, 6
  br i1 %53, label %54, label %93

54:                                               ; preds = %51
  call void @llvm.lifetime.start.p0(i64 4, ptr %8) #10
  call void @llvm.lifetime.start.p0(i64 4, ptr %9) #10
  %55 = load i64, ptr %3, align 8, !tbaa !7
  %56 = call i32 @H5Tget_nmembers(i64 noundef %55)
  store i32 %56, ptr %9, align 4, !tbaa !3
  call void @llvm.lifetime.start.p0(i64 4, ptr %10) #10
  %57 = load i32, ptr %9, align 4, !tbaa !3
  %58 = icmp slt i32 %57, 0
  br i1 %58, label %59, label %60

59:                                               ; preds = %54
  store i32 -1, ptr %5, align 4, !tbaa !3
  store i32 2, ptr %7, align 4
  br label %90

60:                                               ; preds = %54
  %61 = load i32, ptr %9, align 4, !tbaa !3
  store i32 %61, ptr %8, align 4, !tbaa !3
  store i32 0, ptr %10, align 4, !tbaa !3
  br label %62

62:                                               ; preds = %86, %60
  %63 = load i32, ptr %10, align 4, !tbaa !3
  %64 = load i32, ptr %8, align 4, !tbaa !3
  %65 = icmp ult i32 %63, %64
  br i1 %65, label %66, label %89

66:                                               ; preds = %62
  call void @llvm.lifetime.start.p0(i64 8, ptr %11) #10
  %67 = load i64, ptr %3, align 8, !tbaa !7
  %68 = load i32, ptr %10, align 4, !tbaa !3
  %69 = call i64 @H5Tget_member_type(i64 noundef %67, i32 noundef %68)
  store i64 %69, ptr %11, align 8, !tbaa !7
  %70 = load i64, ptr %11, align 8, !tbaa !7
  %71 = call i32 @h5tools_detect_vlen_str(i64 noundef %70)
  store i32 %71, ptr %5, align 4, !tbaa !3
  %72 = load i32, ptr %5, align 4, !tbaa !3
  %73 = icmp eq i32 %72, 1
  br i1 %73, label %77, label %74

74:                                               ; preds = %66
  %75 = load i32, ptr %5, align 4, !tbaa !3
  %76 = icmp slt i32 %75, 0
  br i1 %76, label %77, label %80

77:                                               ; preds = %74, %66
  %78 = load i64, ptr %11, align 8, !tbaa !7
  %79 = call i32 @H5Tclose(i64 noundef %78)
  store i32 2, ptr %7, align 4
  br label %83

80:                                               ; preds = %74
  %81 = load i64, ptr %11, align 8, !tbaa !7
  %82 = call i32 @H5Tclose(i64 noundef %81)
  store i32 0, ptr %7, align 4
  br label %83

83:                                               ; preds = %77, %80
  call void @llvm.lifetime.end.p0(i64 8, ptr %11) #10
  %84 = load i32, ptr %7, align 4
  switch i32 %84, label %90 [
    i32 0, label %85
  ]

85:                                               ; preds = %83
  br label %86

86:                                               ; preds = %85
  %87 = load i32, ptr %10, align 4, !tbaa !3
  %88 = add i32 %87, 1
  store i32 %88, ptr %10, align 4, !tbaa !3
  br label %62, !llvm.loop !35

89:                                               ; preds = %62
  store i32 0, ptr %7, align 4
  br label %90

90:                                               ; preds = %59, %89, %83
  call void @llvm.lifetime.end.p0(i64 4, ptr %10) #10
  call void @llvm.lifetime.end.p0(i64 4, ptr %9) #10
  call void @llvm.lifetime.end.p0(i64 4, ptr %8) #10
  %91 = load i32, ptr %7, align 4
  switch i32 %91, label %97 [
    i32 0, label %92
    i32 2, label %95
  ]

92:                                               ; preds = %90
  br label %93

93:                                               ; preds = %92, %51
  br label %94

94:                                               ; preds = %93, %50
  br label %95

95:                                               ; preds = %94, %90, %48, %19
  %96 = load i32, ptr %5, align 4, !tbaa !3
  store i32 %96, ptr %2, align 4
  store i32 1, ptr %7, align 4
  br label %97

97:                                               ; preds = %95, %90, %48
  call void @llvm.lifetime.end.p0(i64 4, ptr %5) #10
  call void @llvm.lifetime.end.p0(i64 4, ptr %4) #10
  %98 = load i32, ptr %2, align 4
  ret i32 %98
}