; Function Attrs: nounwind uwtable
define i32 @h5tools_detect_vlen_str(i64 noundef %0) local_unnamed_addr #0 {
  %2 = tail call i32 @H5Tis_variable_str(i64 noundef %0) #16
  %3 = icmp eq i32 %2, 1
  %4 = icmp slt i32 %2, 0
  %or.cond = or i1 %3, %4
  br i1 %or.cond, label %.loopexit, label %5

5:                                                ; preds = %1
  %6 = tail call i32 @H5Tget_class(i64 noundef %0) #16
  %7 = add i32 %6, -9
  %or.cond3 = icmp ult i32 %7, 2
  br i1 %or.cond3, label %8, label %19

8:                                                ; preds = %5
  %9 = tail call i64 @H5Tget_super(i64 noundef %0) #16
  %10 = icmp slt i64 %9, 0
  br i1 %10, label %11, label %13

11:                                               ; preds = %8
  %12 = trunc i64 %9 to i32
  br label %.loopexit

13:                                               ; preds = %8
  %14 = tail call i32 @h5tools_detect_vlen_str(i64 noundef %9)
  %15 = icmp eq i32 %14, 1
  %16 = icmp slt i32 %14, 0
  %or.cond5 = or i1 %15, %16
  br i1 %or.cond5, label %17, label %.loopexit

17:                                               ; preds = %13
  %18 = tail call i32 @H5Tclose(i64 noundef %9) #16
  br label %.loopexit

19:                                               ; preds = %5
  %20 = icmp eq i32 %6, 6
  br i1 %20, label %21, label %.loopexit

21:                                               ; preds = %19
  %22 = tail call i32 @H5Tget_nmembers(i64 noundef %0) #16
  %23 = icmp slt i32 %22, 0
  br i1 %23, label %.loopexit, label %.preheader

.preheader:                                       ; preds = %21
  %.not = icmp eq i32 %22, 0
  br i1 %.not, label %.loopexit, label %.lr.ph

.lr.ph:                                           ; preds = %.preheader, %.lr.ph
  %.03952 = phi i32 [ %29, %.lr.ph ], [ 0, %.preheader ]
  %24 = tail call i64 @H5Tget_member_type(i64 noundef %0, i32 noundef %.03952) #16
  %25 = tail call i32 @h5tools_detect_vlen_str(i64 noundef %24)
  %26 = icmp eq i32 %25, 1
  %27 = icmp slt i32 %25, 0
  %or.cond7.not.not58 = or i1 %26, %27
  %28 = tail call i32 @H5Tclose(i64 noundef %24) #16
  %29 = add nuw i32 %.03952, 1
  %exitcond.not = icmp eq i32 %29, %22
  %or.cond55 = select i1 %or.cond7.not.not58, i1 true, i1 %exitcond.not
  br i1 %or.cond55, label %.loopexit, label %.lr.ph, !llvm.loop !29

.loopexit:                                        ; preds = %.lr.ph, %.preheader, %1, %19, %13, %17, %11, %21
  %.040 = phi i32 [ %2, %1 ], [ %2, %19 ], [ %12, %11 ], [ %14, %17 ], [ %14, %13 ], [ -1, %21 ], [ %2, %.preheader ], [ %25, %.lr.ph ]
  ret i32 %.040
}